; Function Attrs: mustprogress nofree norecurse nosync nounwind willreturn memory(read, inaccessiblemem: none) uwtable
define noundef zeroext i1 @_ZNK6casadi16SparsityInternal9is_scalarEb(ptr nocapture noundef nonnull readonly align 8 dereferenceable(56) %0, i1 noundef zeroext %1) local_unnamed_addr #11 align 2 {
  %3 = getelementptr inbounds i8, ptr %0, i64 24
  %4 = load ptr, ptr %3, align 8
  %5 = getelementptr inbounds i8, ptr %4, i64 8
  %6 = load i64, ptr %5, align 8
  %7 = icmp eq i64 %6, 1
  br i1 %7, label %8, label %15

8:                                                ; preds = %2
  %9 = load i64, ptr %4, align 8
  %10 = icmp eq i64 %9, 1
  %brmerge.not = and i1 %10, %1
  br i1 %brmerge.not, label %11, label %15

11:                                               ; preds = %8
  %12 = getelementptr inbounds i8, ptr %4, i64 24
  %13 = load i64, ptr %12, align 8
  %14 = icmp eq i64 %13, 1
  br label %15

15:                                               ; preds = %8, %11, %2
  %16 = phi i1 [ %10, %8 ], [ false, %2 ], [ %14, %11 ]
  ret i1 %16
}